target datalayout = "e-m:e-p270:32:32-p271:32:32-p272:64:64-i64:64-i128:128-f80:128-n8:16:32:64-S128"
target triple = "x86_64-pc-linux-gnu"

; Function Attrs: alwaysinline nounwind willreturn memory(none) uwtable
define internal i32 @av_clip_c(i32 noundef %0, i32 noundef %1, i32 noundef %2) #3 {
  %4 = alloca i32, align 4
  %5 = alloca i32, align 4
  %6 = alloca i32, align 4
  %7 = alloca i32, align 4
  store i32 %0, ptr %5, align 4, !tbaa !9
  store i32 %1, ptr %6, align 4, !tbaa !9
  store i32 %2, ptr %7, align 4, !tbaa !9
  %8 = load i32, ptr %5, align 4, !tbaa !9
  %9 = load i32, ptr %6, align 4, !tbaa !9
  %10 = icmp slt i32 %8, %9
  br i1 %10, label %11, label %13

11:                                               ; preds = %3
  %12 = load i32, ptr %6, align 4, !tbaa !9
  store i32 %12, ptr %4, align 4
  br label %21

13:                                               ; preds = %3
  %14 = load i32, ptr %5, align 4, !tbaa !9
  %15 = load i32, ptr %7, align 4, !tbaa !9
  %16 = icmp sgt i32 %14, %15
  br i1 %16, label %17, label %19

17:                                               ; preds = %13
  %18 = load i32, ptr %7, align 4, !tbaa !9
  store i32 %18, ptr %4, align 4
  br label %21

19:                                               ; preds = %13
  %20 = load i32, ptr %5, align 4, !tbaa !9
  store i32 %20, ptr %4, align 4
  br label %21

21:                                               ; preds = %19, %17, %11
  %22 = load i32, ptr %4, align 4
  ret i32 %22
}

; Function Attrs: nounwind uwtable
define internal void @prof_grad_filter_12(ptr noundef %0, ptr noundef %1, i64 noundef %2, ptr noundef %3, i64 noundef %4, i32 noundef %5, i32 noundef %6) #0 {
  %8 = alloca ptr, align 8
  %9 = alloca ptr, align 8
  %10 = alloca i64, align 8
  %11 = alloca ptr, align 8
  %12 = alloca i64, align 8
  %13 = alloca i32, align 4
  %14 = alloca i32, align 4
  %15 = alloca i32, align 4
  %16 = alloca ptr, align 8
  %17 = alloca i32, align 4
  %18 = alloca i32, align 4
  %19 = alloca ptr, align 8
  %20 = alloca i32, align 4
  store ptr %0, ptr %8, align 8, !tbaa !142
  store ptr %1, ptr %9, align 8, !tbaa !142
  store i64 %2, ptr %10, align 8, !tbaa !146
  store ptr %3, ptr %11, align 8, !tbaa !142
  store i64 %4, ptr %12, align 8, !tbaa !146
  store i32 %5, ptr %13, align 4, !tbaa !9
  store i32 %6, ptr %14, align 4, !tbaa !9
  call void @llvm.lifetime.start.p0(i64 4, ptr %15) #8
  store i32 6, ptr %15, align 4, !tbaa !9
  call void @llvm.lifetime.start.p0(i64 8, ptr %16) #8
  %21 = load ptr, ptr %11, align 8, !tbaa !142
  store ptr %21, ptr %16, align 8, !tbaa !142
  call void @llvm.lifetime.start.p0(i64 4, ptr %17) #8
  store i32 0, ptr %17, align 4, !tbaa !9
  br label %22

22:                                               ; preds = %85, %7
  %23 = load i32, ptr %17, align 4, !tbaa !9
  %24 = load i32, ptr %14, align 4, !tbaa !9
  %25 = icmp slt i32 %23, %24
  br i1 %25, label %27, label %26

26:                                               ; preds = %22
  store i32 2, ptr %18, align 4
  call void @llvm.lifetime.end.p0(i64 4, ptr %17) #8
  br label %88

27:                                               ; preds = %22
  call void @llvm.lifetime.start.p0(i64 8, ptr %19) #8
  %28 = load ptr, ptr %16, align 8, !tbaa !142
  store ptr %28, ptr %19, align 8, !tbaa !142
  call void @llvm.lifetime.start.p0(i64 4, ptr %20) #8
  store i32 0, ptr %20, align 4, !tbaa !9
  br label %29

29:                                               ; preds = %72, %27
  %30 = load i32, ptr %20, align 4, !tbaa !9
  %31 = load i32, ptr %13, align 4, !tbaa !9
  %32 = icmp slt i32 %30, %31
  br i1 %32, label %34, label %33

33:                                               ; preds = %29
  store i32 5, ptr %18, align 4
  call void @llvm.lifetime.end.p0(i64 4, ptr %20) #8
  br label %75

34:                                               ; preds = %29
  %35 = load ptr, ptr %19, align 8, !tbaa !142
  %36 = getelementptr inbounds i16, ptr %35, i64 1
  %37 = load i16, ptr %36, align 2, !tbaa !148
  %38 = sext i16 %37 to i32
  %39 = ashr i32 %38, 6
  %40 = load ptr, ptr %19, align 8, !tbaa !142
  %41 = getelementptr inbounds i16, ptr %40, i64 -1
  %42 = load i16, ptr %41, align 2, !tbaa !148
  %43 = sext i16 %42 to i32
  %44 = ashr i32 %43, 6
  %45 = sub nsw i32 %39, %44
  %46 = trunc i32 %45 to i16
  %47 = load ptr, ptr %8, align 8, !tbaa !142
  %48 = load i32, ptr %20, align 4, !tbaa !9
  %49 = sext i32 %48 to i64
  %50 = getelementptr inbounds i16, ptr %47, i64 %49
  store i16 %46, ptr %50, align 2, !tbaa !148
  %51 = load ptr, ptr %19, align 8, !tbaa !142
  %52 = load i64, ptr %12, align 8, !tbaa !146
  %53 = getelementptr inbounds i16, ptr %51, i64 %52
  %54 = load i16, ptr %53, align 2, !tbaa !148
  %55 = sext i16 %54 to i32
  %56 = ashr i32 %55, 6
  %57 = load ptr, ptr %19, align 8, !tbaa !142
  %58 = load i64, ptr %12, align 8, !tbaa !146
  %59 = sub nsw i64 0, %58
  %60 = getelementptr inbounds i16, ptr %57, i64 %59
  %61 = load i16, ptr %60, align 2, !tbaa !148
  %62 = sext i16 %61 to i32
  %63 = ashr i32 %62, 6
  %64 = sub nsw i32 %56, %63
  %65 = trunc i32 %64 to i16
  %66 = load ptr, ptr %9, align 8, !tbaa !142
  %67 = load i32, ptr %20, align 4, !tbaa !9
  %68 = sext i32 %67 to i64
  %69 = getelementptr inbounds i16, ptr %66, i64 %68
  store i16 %65, ptr %69, align 2, !tbaa !148
  %70 = load ptr, ptr %19, align 8, !tbaa !142
  %71 = getelementptr inbounds nuw i16, ptr %70, i32 1
  store ptr %71, ptr %19, align 8, !tbaa !142
  br label %72

72:                                               ; preds = %34
  %73 = load i32, ptr %20, align 4, !tbaa !9
  %74 = add nsw i32 %73, 1
  store i32 %74, ptr %20, align 4, !tbaa !9
  br label %29, !llvm.loop !242

75:                                               ; preds = %33
  %76 = load i64, ptr %10, align 8, !tbaa !146
  %77 = load ptr, ptr %8, align 8, !tbaa !142
  %78 = getelementptr inbounds i16, ptr %77, i64 %76
  store ptr %78, ptr %8, align 8, !tbaa !142
  %79 = load i64, ptr %10, align 8, !tbaa !146
  %80 = load ptr, ptr %9, align 8, !tbaa !142
  %81 = getelementptr inbounds i16, ptr %80, i64 %79
  store ptr %81, ptr %9, align 8, !tbaa !142
  %82 = load i64, ptr %12, align 8, !tbaa !146
  %83 = load ptr, ptr %16, align 8, !tbaa !142
  %84 = getelementptr inbounds i16, ptr %83, i64 %82
  store ptr %84, ptr %16, align 8, !tbaa !142
  call void @llvm.lifetime.end.p0(i64 8, ptr %19) #8
  br label %85

85:                                               ; preds = %75
  %86 = load i32, ptr %17, align 4, !tbaa !9
  %87 = add nsw i32 %86, 1
  store i32 %87, ptr %17, align 4, !tbaa !9
  br label %22, !llvm.loop !243

88:                                               ; preds = %26
  call void @llvm.lifetime.end.p0(i64 8, ptr %16) #8
  call void @llvm.lifetime.end.p0(i64 4, ptr %15) #8
  ret void
}

; Function Attrs: nounwind uwtable
define internal void @apply_prof_12(ptr noundef %0, ptr noundef %1, ptr noundef %2, ptr noundef %3) #0 {
  %5 = alloca ptr, align 8
  %6 = alloca ptr, align 8
  %7 = alloca ptr, align 8
  %8 = alloca ptr, align 8
  %9 = alloca i32, align 4
  %10 = alloca [16 x i16], align 16
  %11 = alloca [16 x i16], align 16
  %12 = alloca i32, align 4
  %13 = alloca i32, align 4
  %14 = alloca i32, align 4
  %15 = alloca i32, align 4
  %16 = alloca i32, align 4
  %17 = alloca i32, align 4
  store ptr %0, ptr %5, align 8, !tbaa !142
  store ptr %1, ptr %6, align 8, !tbaa !142
  store ptr %2, ptr %7, align 8, !tbaa !142
  store ptr %3, ptr %8, align 8, !tbaa !142
  call void @llvm.lifetime.start.p0(i64 4, ptr %9) #8
  store i32 8192, ptr %9, align 4, !tbaa !9
  call void @llvm.lifetime.start.p0(i64 32, ptr %10) #8
  call void @llvm.lifetime.start.p0(i64 32, ptr %11) #8
  %18 = getelementptr inbounds [16 x i16], ptr %10, i64 0, i64 0
  %19 = getelementptr inbounds [16 x i16], ptr %11, i64 0, i64 0
  %20 = load ptr, ptr %6, align 8, !tbaa !142
  call void @prof_grad_filter_12(ptr noundef %18, ptr noundef %19, i64 noundef 4, ptr noundef %20, i64 noundef 128, i32 noundef 4, i32 noundef 4)
  call void @llvm.lifetime.start.p0(i64 4, ptr %12) #8
  store i32 0, ptr %12, align 4, !tbaa !9
  br label %21

21:                                               ; preds = %83, %4
  %22 = load i32, ptr %12, align 4, !tbaa !9
  %23 = icmp slt i32 %22, 4
  br i1 %23, label %25, label %24

24:                                               ; preds = %21
  store i32 2, ptr %13, align 4
  call void @llvm.lifetime.end.p0(i64 4, ptr %12) #8
  br label %86

25:                                               ; preds = %21
  call void @llvm.lifetime.start.p0(i64 4, ptr %14) #8
  store i32 0, ptr %14, align 4, !tbaa !9
  br label %26

26:                                               ; preds = %75, %25
  %27 = load i32, ptr %14, align 4, !tbaa !9
  %28 = icmp slt i32 %27, 4
  br i1 %28, label %30, label %29

29:                                               ; preds = %26
  store i32 5, ptr %13, align 4
  call void @llvm.lifetime.end.p0(i64 4, ptr %14) #8
  br label %78

30:                                               ; preds = %26
  call void @llvm.lifetime.start.p0(i64 4, ptr %15) #8
  %31 = load i32, ptr %12, align 4, !tbaa !9
  %32 = mul nsw i32 %31, 4
  %33 = load i32, ptr %14, align 4, !tbaa !9
  %34 = add nsw i32 %32, %33
  store i32 %34, ptr %15, align 4, !tbaa !9
  call void @llvm.lifetime.start.p0(i64 4, ptr %16) #8
  %35 = load i32, ptr %15, align 4, !tbaa !9
  %36 = sext i32 %35 to i64
  %37 = getelementptr inbounds [16 x i16], ptr %10, i64 0, i64 %36
  %38 = load i16, ptr %37, align 2, !tbaa !148
  %39 = sext i16 %38 to i32
  %40 = load ptr, ptr %7, align 8, !tbaa !142
  %41 = load i32, ptr %15, align 4, !tbaa !9
  %42 = sext i32 %41 to i64
  %43 = getelementptr inbounds i16, ptr %40, i64 %42
  %44 = load i16, ptr %43, align 2, !tbaa !148
  %45 = sext i16 %44 to i32
  %46 = mul nsw i32 %39, %45
  %47 = load i32, ptr %15, align 4, !tbaa !9
  %48 = sext i32 %47 to i64
  %49 = getelementptr inbounds [16 x i16], ptr %11, i64 0, i64 %48
  %50 = load i16, ptr %49, align 2, !tbaa !148
  %51 = sext i16 %50 to i32
  %52 = load ptr, ptr %8, align 8, !tbaa !142
  %53 = load i32, ptr %15, align 4, !tbaa !9
  %54 = sext i32 %53 to i64
  %55 = getelementptr inbounds i16, ptr %52, i64 %54
  %56 = load i16, ptr %55, align 2, !tbaa !148
  %57 = sext i16 %56 to i32
  %58 = mul nsw i32 %51, %57
  %59 = add nsw i32 %46, %58
  store i32 %59, ptr %16, align 4, !tbaa !9
  call void @llvm.lifetime.start.p0(i64 4, ptr %17) #8
  %60 = load ptr, ptr %6, align 8, !tbaa !142
  %61 = load i32, ptr %14, align 4, !tbaa !9
  %62 = sext i32 %61 to i64
  %63 = getelementptr inbounds i16, ptr %60, i64 %62
  %64 = load i16, ptr %63, align 2, !tbaa !148
  %65 = sext i16 %64 to i32
  %66 = load i32, ptr %16, align 4, !tbaa !9
  %67 = call i32 @av_clip_c(i32 noundef %66, i32 noundef -8192, i32 noundef 8191) #9
  %68 = add nsw i32 %65, %67
  store i32 %68, ptr %17, align 4, !tbaa !9
  %69 = load i32, ptr %17, align 4, !tbaa !9
  %70 = trunc i32 %69 to i16
  %71 = load ptr, ptr %5, align 8, !tbaa !142
  %72 = load i32, ptr %14, align 4, !tbaa !9
  %73 = sext i32 %72 to i64
  %74 = getelementptr inbounds i16, ptr %71, i64 %73
  store i16 %70, ptr %74, align 2, !tbaa !148
  call void @llvm.lifetime.end.p0(i64 4, ptr %17) #8
  call void @llvm.lifetime.end.p0(i64 4, ptr %16) #8
  call void @llvm.lifetime.end.p0(i64 4, ptr %15) #8
  br label %75

75:                                               ; preds = %30
  %76 = load i32, ptr %14, align 4, !tbaa !9
  %77 = add nsw i32 %76, 1
  store i32 %77, ptr %14, align 4, !tbaa !9
  br label %26, !llvm.loop !224

78:                                               ; preds = %29
  %79 = load ptr, ptr %6, align 8, !tbaa !142
  %80 = getelementptr inbounds i16, ptr %79, i64 128
  store ptr %80, ptr %6, align 8, !tbaa !142
  %81 = load ptr, ptr %5, align 8, !tbaa !142
  %82 = getelementptr inbounds i16, ptr %81, i64 128
  store ptr %82, ptr %5, align 8, !tbaa !142
  br label %83

83:                                               ; preds = %78
  %84 = load i32, ptr %12, align 4, !tbaa !9
  %85 = add nsw i32 %84, 1
  store i32 %85, ptr %12, align 4, !tbaa !9
  br label %21, !llvm.loop !225

86:                                               ; preds = %24
  call void @llvm.lifetime.end.p0(i64 32, ptr %11) #8
  call void @llvm.lifetime.end.p0(i64 32, ptr %10) #8
  call void @llvm.lifetime.end.p0(i64 4, ptr %9) #8
  ret void
}