; Function Attrs: nofree norecurse nosync nounwind memory(argmem: readwrite) uwtable
define internal void @apply_prof_12(ptr noundef writeonly captures(none) %0, ptr noundef readonly captures(none) %1, ptr noundef readonly captures(none) %2, ptr noundef readonly captures(none) %3) #2 {
  %5 = alloca [16 x i16], align 16
  %6 = alloca [16 x i16], align 16
  call void @llvm.lifetime.start.p0(i64 32, ptr nonnull %5) #14
  call void @llvm.lifetime.start.p0(i64 32, ptr nonnull %6) #14
  br label %.preheader.us.i

.preheader.us.i:                                  ; preds = %._crit_edge.us.i, %4
  %.02535.us.i = phi i32 [ %25, %._crit_edge.us.i ], [ 0, %4 ]
  %.02634.us.i = phi ptr [ %24, %._crit_edge.us.i ], [ %1, %4 ]
  %.02733.us.i = phi ptr [ %22, %._crit_edge.us.i ], [ %5, %4 ]
  %.02832.us.i = phi ptr [ %23, %._crit_edge.us.i ], [ %6, %4 ]
  br label %7

7:                                                ; preds = %7, %.preheader.us.i
  %indvars.iv.i = phi i64 [ 0, %.preheader.us.i ], [ %indvars.iv.next.i, %7 ]
  %.02430.us.i = phi ptr [ %.02634.us.i, %.preheader.us.i ], [ %8, %7 ]
  %8 = getelementptr inbounds nuw i8, ptr %.02430.us.i, i64 2
  %9 = load i16, ptr %8, align 2, !tbaa !124
  %10 = ashr i16 %9, 6
  %11 = getelementptr inbounds i8, ptr %.02430.us.i, i64 -2
  %12 = load i16, ptr %11, align 2, !tbaa !124
  %13 = ashr i16 %12, 6
  %narrow.us.i = sub nsw i16 %10, %13
  %14 = getelementptr inbounds nuw i16, ptr %.02733.us.i, i64 %indvars.iv.i
  store i16 %narrow.us.i, ptr %14, align 2, !tbaa !124
  %15 = getelementptr inbounds nuw i8, ptr %.02430.us.i, i64 256
  %16 = load i16, ptr %15, align 2, !tbaa !124
  %17 = ashr i16 %16, 6
  %18 = getelementptr inbounds i8, ptr %.02430.us.i, i64 -256
  %19 = load i16, ptr %18, align 2, !tbaa !124
  %20 = ashr i16 %19, 6
  %narrow29.us.i = sub nsw i16 %17, %20
  %21 = getelementptr inbounds nuw i16, ptr %.02832.us.i, i64 %indvars.iv.i
  store i16 %narrow29.us.i, ptr %21, align 2, !tbaa !124
  %indvars.iv.next.i = add nuw nsw i64 %indvars.iv.i, 1
  %exitcond.not.i = icmp eq i64 %indvars.iv.next.i, 4
  br i1 %exitcond.not.i, label %._crit_edge.us.i, label %7, !llvm.loop !208

._crit_edge.us.i:                                 ; preds = %7
  %22 = getelementptr inbounds nuw i8, ptr %.02733.us.i, i64 8
  %23 = getelementptr inbounds nuw i8, ptr %.02832.us.i, i64 8
  %24 = getelementptr inbounds nuw i8, ptr %.02634.us.i, i64 256
  %25 = add nuw nsw i32 %.02535.us.i, 1
  %exitcond39.not.i = icmp eq i32 %25, 4
  br i1 %exitcond39.not.i, label %.preheader, label %.preheader.us.i, !llvm.loop !209

.preheader:                                       ; preds = %._crit_edge.us.i, %prof_grad_filter_12.exit
  %indvars.iv28 = phi i64 [ %indvars.iv.next29, %prof_grad_filter_12.exit ], [ 0, %._crit_edge.us.i ]
  %.026 = phi ptr [ %29, %prof_grad_filter_12.exit ], [ %0, %._crit_edge.us.i ]
  %.02025 = phi ptr [ %28, %prof_grad_filter_12.exit ], [ %1, %._crit_edge.us.i ]
  %26 = shl nuw nsw i64 %indvars.iv28, 2
  br label %30

27:                                               ; preds = %prof_grad_filter_12.exit
  call void @llvm.lifetime.end.p0(i64 32, ptr nonnull %6) #14
  call void @llvm.lifetime.end.p0(i64 32, ptr nonnull %5) #14
  ret void

prof_grad_filter_12.exit:                         ; preds = %30
  %28 = getelementptr inbounds nuw i8, ptr %.02025, i64 256
  %29 = getelementptr inbounds nuw i8, ptr %.026, i64 256
  %indvars.iv.next29 = add nuw nsw i64 %indvars.iv28, 1
  %exitcond31.not = icmp eq i64 %indvars.iv.next29, 4
  br i1 %exitcond31.not, label %27, label %.preheader, !llvm.loop !210

30:                                               ; preds = %.preheader, %30
  %indvars.iv = phi i64 [ 0, %.preheader ], [ %indvars.iv.next, %30 ]
  %31 = add nuw nsw i64 %indvars.iv, %26
  %32 = getelementptr inbounds nuw [16 x i16], ptr %5, i64 0, i64 %31
  %33 = load i16, ptr %32, align 2, !tbaa !124
  %34 = sext i16 %33 to i32
  %35 = getelementptr inbounds nuw i16, ptr %2, i64 %31
  %36 = load i16, ptr %35, align 2, !tbaa !124
  %37 = sext i16 %36 to i32
  %38 = mul nsw i32 %37, %34
  %39 = getelementptr inbounds nuw [16 x i16], ptr %6, i64 0, i64 %31
  %40 = load i16, ptr %39, align 2, !tbaa !124
  %41 = sext i16 %40 to i32
  %42 = getelementptr inbounds nuw i16, ptr %3, i64 %31
  %43 = load i16, ptr %42, align 2, !tbaa !124
  %44 = sext i16 %43 to i32
  %45 = mul nsw i32 %44, %41
  %46 = add nsw i32 %45, %38
  %47 = getelementptr inbounds nuw i16, ptr %.02025, i64 %indvars.iv
  %48 = load i16, ptr %47, align 2, !tbaa !124
  %49 = tail call i32 @llvm.smax.i32(i32 %46, i32 -8192)
  %.0.i = tail call i32 @llvm.smin.i32(i32 %49, i32 8191)
  %50 = trunc nsw i32 %.0.i to i16
  %51 = add i16 %48, %50
  %52 = getelementptr inbounds nuw i16, ptr %.026, i64 %indvars.iv
  store i16 %51, ptr %52, align 2, !tbaa !124
  %indvars.iv.next = add nuw nsw i64 %indvars.iv, 1
  %exitcond.not = icmp eq i64 %indvars.iv.next, 4
  br i1 %exitcond.not, label %prof_grad_filter_12.exit, label %30, !llvm.loop !211
}